target datalayout = "e-m:e-p270:32:32-p271:32:32-p272:64:64-i64:64-i128:128-f80:128-n8:16:32:64-S128"
target triple = "x86_64-pc-linux-gnu"

%struct.expert_field = type { i32, i32 }

@.str.32 = private unnamed_addr constant [1 x i8] zeroinitializer, align 1
@ei_gsm_a_extraneous_data = internal global %struct.expert_field zeroinitializer, align 4
@ett_gsm_a_plmn = internal global i32 0, align 4
@.str.82 = private unnamed_addr constant [9 x i8] c"PLMN[%u]\00", align 1
@.str.83 = private unnamed_addr constant [5 x i8] c": %s\00", align 1
@.str.84 = private unnamed_addr constant [13 x i8] c" - %u PLMN%s\00", align 1
@.str.85 = private unnamed_addr constant [2 x i8] c"s\00", align 1

; Function Attrs: null_pointer_is_valid sspstrong uwtable
define hidden zeroext i16 @de_plmn_list(ptr noundef %0, ptr noundef %1, ptr noundef %2, i32 noundef %3, i32 noundef %4, ptr noundef %5, i32 noundef %6) #1 {
  %8 = alloca ptr, align 8
  %9 = alloca ptr, align 8
  %10 = alloca ptr, align 8
  %11 = alloca i32, align 4
  %12 = alloca i32, align 4
  %13 = alloca ptr, align 8
  %14 = alloca i32, align 4
  %15 = alloca ptr, align 8
  %16 = alloca i32, align 4
  %17 = alloca i8, align 1
  %18 = alloca ptr, align 8
  store ptr %0, ptr %8, align 8
  store ptr %1, ptr %9, align 8
  store ptr %2, ptr %10, align 8
  store i32 %3, ptr %11, align 4
  store i32 %4, ptr %12, align 4
  store ptr %5, ptr %13, align 8
  store i32 %6, ptr %14, align 4
  call void @llvm.lifetime.start.p0(i64 8, ptr %15) #9
  call void @llvm.lifetime.start.p0(i64 4, ptr %16) #9
  call void @llvm.lifetime.start.p0(i64 1, ptr %17) #9
  call void @llvm.lifetime.start.p0(i64 8, ptr %18) #9
  %19 = load i32, ptr %11, align 4
  store i32 %19, ptr %16, align 4
  store i8 0, ptr %17, align 1
  br label %20

20:                                               ; preds = %27, %7
  %21 = load i32, ptr %12, align 4
  %22 = load i32, ptr %16, align 4
  %23 = load i32, ptr %11, align 4
  %24 = sub i32 %22, %23
  %25 = sub i32 %21, %24
  %26 = icmp uge i32 %25, 3
  br i1 %26, label %27, label %47

27:                                               ; preds = %20
  %28 = load ptr, ptr %9, align 8
  %29 = load ptr, ptr %8, align 8
  %30 = load i32, ptr %16, align 4
  %31 = load i32, ptr @ett_gsm_a_plmn, align 4
  %32 = load i8, ptr %17, align 1
  %33 = zext i8 %32 to i32
  %34 = add i32 %33, 1
  %35 = call ptr (ptr, ptr, i32, i32, i32, ptr, ptr, ...) @proto_tree_add_subtree_format(ptr noundef %28, ptr noundef %29, i32 noundef %30, i32 noundef 3, i32 noundef %31, ptr noundef null, ptr noundef @.str.82, i32 noundef %34)
  store ptr %35, ptr %18, align 8
  %36 = load ptr, ptr %8, align 8
  %37 = load ptr, ptr %10, align 8
  %38 = load ptr, ptr %18, align 8
  %39 = load i32, ptr %16, align 4
  %40 = call ptr @dissect_e212_mcc_mnc_wmem_packet_str(ptr noundef %36, ptr noundef %37, ptr noundef %38, i32 noundef %39, i32 noundef 0, i1 noundef zeroext true)
  store ptr %40, ptr %15, align 8
  %41 = load ptr, ptr %18, align 8
  %42 = load ptr, ptr %15, align 8
  call void (ptr, ptr, ...) @proto_item_append_text(ptr noundef %41, ptr noundef @.str.83, ptr noundef %42)
  %43 = load i32, ptr %16, align 4
  %44 = add i32 %43, 3
  store i32 %44, ptr %16, align 4
  %45 = load i8, ptr %17, align 1
  %46 = add i8 %45, 1
  store i8 %46, ptr %17, align 1
  br label %20, !llvm.loop !10

47:                                               ; preds = %20
  %48 = load ptr, ptr %13, align 8
  %49 = icmp ne ptr %48, null
  br i1 %49, label %50, label %63

50:                                               ; preds = %47
  %51 = load ptr, ptr %13, align 8
  %52 = load i32, ptr %14, align 4
  %53 = sext i32 %52 to i64
  %54 = load ptr, ptr %13, align 8
  %55 = call i64 @llvm.objectsize.i64.p0(ptr %54, i1 false, i1 true, i1 true)
  %56 = load i8, ptr %17, align 1
  %57 = zext i8 %56 to i32
  %58 = load i8, ptr %17, align 1
  %59 = zext i8 %58 to i32
  %60 = icmp eq i32 %59, 1
  %61 = select i1 %60, ptr @.str.32, ptr @.str.85
  %62 = call i32 (ptr, i64, i32, i64, ptr, ...) @__snprintf_chk(ptr noundef %51, i64 noundef %53, i32 noundef 2, i64 noundef %55, ptr noundef @.str.84, i32 noundef %57, ptr noundef %61)
  br label %63

63:                                               ; preds = %50, %47
  %64 = load i32, ptr %12, align 4
  %65 = load i32, ptr %16, align 4
  %66 = load i32, ptr %11, align 4
  %67 = sub i32 %65, %66
  %68 = icmp ugt i32 %64, %67
  br i1 %68, label %69, label %87

69:                                               ; preds = %63
  %70 = load ptr, ptr %9, align 8
  %71 = load ptr, ptr %10, align 8
  %72 = load ptr, ptr %8, align 8
  %73 = load i32, ptr %16, align 4
  %74 = load i32, ptr %12, align 4
  %75 = load i32, ptr %16, align 4
  %76 = load i32, ptr %11, align 4
  %77 = sub i32 %75, %76
  %78 = sub i32 %74, %77
  %79 = call ptr @proto_tree_add_expert(ptr noundef %70, ptr noundef %71, ptr noundef @ei_gsm_a_extraneous_data, ptr noundef %72, i32 noundef %73, i32 noundef %78)
  %80 = load i32, ptr %12, align 4
  %81 = load i32, ptr %16, align 4
  %82 = load i32, ptr %11, align 4
  %83 = sub i32 %81, %82
  %84 = sub i32 %80, %83
  %85 = load i32, ptr %16, align 4
  %86 = add i32 %85, %84
  store i32 %86, ptr %16, align 4
  br label %87

87:                                               ; preds = %69, %63
  %88 = load i32, ptr %16, align 4
  %89 = load i32, ptr %11, align 4
  %90 = sub i32 %88, %89
  %91 = trunc i32 %90 to i16
  call void @llvm.lifetime.end.p0(i64 8, ptr %18) #9
  call void @llvm.lifetime.end.p0(i64 1, ptr %17) #9
  call void @llvm.lifetime.end.p0(i64 4, ptr %16) #9
  call void @llvm.lifetime.end.p0(i64 8, ptr %15) #9
  ret i16 %91
}