; Function Attrs: null_pointer_is_valid sspstrong uwtable
define hidden zeroext i16 @de_plmn_list(ptr noundef %0, ptr noundef %1, ptr noundef %2, i32 noundef %3, i32 noundef %4, ptr noundef %5, i32 noundef %6) #1 {
  %8 = icmp ugt i32 %4, 2
  br i1 %8, label %.lr.ph.preheader, label %._crit_edge

.lr.ph.preheader:                                 ; preds = %7
  %9 = add i32 %4, -3
  %10 = urem i32 %9, 3
  %11 = sub nuw i32 %9, %10
  br label %.lr.ph

.lr.ph:                                           ; preds = %.lr.ph.preheader, %.lr.ph
  %.042 = phi i32 [ %17, %.lr.ph ], [ %3, %.lr.ph.preheader ]
  %.03741 = phi i8 [ %18, %.lr.ph ], [ 0, %.lr.ph.preheader ]
  %12 = load i32, ptr @ett_gsm_a_plmn, align 4
  %13 = zext i8 %.03741 to i32
  %14 = add nuw nsw i32 %13, 1
  %15 = tail call ptr (ptr, ptr, i32, i32, i32, ptr, ptr, ...) @proto_tree_add_subtree_format(ptr noundef %1, ptr noundef %0, i32 noundef %.042, i32 noundef 3, i32 noundef %12, ptr noundef null, ptr noundef nonnull @.str.82, i32 noundef %14)
  %16 = tail call ptr @dissect_e212_mcc_mnc_wmem_packet_str(ptr noundef %0, ptr noundef %2, ptr noundef %15, i32 noundef %.042, i32 noundef 0, i1 noundef zeroext true)
  tail call void (ptr, ptr, ...) @proto_item_append_text(ptr noundef %15, ptr noundef nonnull @.str.83, ptr noundef %16)
  %17 = add i32 %.042, 3
  %18 = add i8 %.03741, 1
  %.neg = sub i32 %3, %17
  %19 = add i32 %.neg, %4
  %20 = icmp ugt i32 %19, 2
  br i1 %20, label %.lr.ph, label %._crit_edge.loopexit, !llvm.loop !8

._crit_edge.loopexit:                             ; preds = %.lr.ph
  %21 = add i32 %11, 3
  br label %._crit_edge

._crit_edge:                                      ; preds = %._crit_edge.loopexit, %7
  %.037.lcssa = phi i8 [ 0, %7 ], [ %18, %._crit_edge.loopexit ]
  %.0.lcssa = phi i32 [ %3, %7 ], [ %17, %._crit_edge.loopexit ]
  %.lcssa40 = phi i32 [ 0, %7 ], [ %21, %._crit_edge.loopexit ]
  %.lcssa = phi i32 [ %4, %7 ], [ %19, %._crit_edge.loopexit ]
  %.not = icmp eq ptr %5, null
  br i1 %.not, label %28, label %22

22:                                               ; preds = %._crit_edge
  %23 = sext i32 %6 to i64
  %24 = zext i8 %.037.lcssa to i32
  %25 = icmp eq i8 %.037.lcssa, 1
  %26 = select i1 %25, ptr @.str.32, ptr @.str.85
  %27 = tail call i32 (ptr, i64, i32, i64, ptr, ...) @__snprintf_chk(ptr noundef nonnull %5, i64 noundef %23, i32 noundef 2, i64 noundef -1, ptr noundef nonnull @.str.84, i32 noundef %24, ptr noundef nonnull %26)
  br label %28

28:                                               ; preds = %22, %._crit_edge
  %29 = icmp ugt i32 %4, %.lcssa40
  br i1 %29, label %30, label %33

30:                                               ; preds = %28
  %31 = tail call ptr @proto_tree_add_expert(ptr noundef %1, ptr noundef %2, ptr noundef nonnull @ei_gsm_a_extraneous_data, ptr noundef %0, i32 noundef %.0.lcssa, i32 noundef %.lcssa)
  %32 = add i32 %.lcssa, %.0.lcssa
  br label %33

33:                                               ; preds = %30, %28
  %.1 = phi i32 [ %32, %30 ], [ %.0.lcssa, %28 ]
  %34 = sub i32 %.1, %3
  %35 = trunc i32 %34 to i16
  ret i16 %35
}